; Function Attrs: nounwind uwtable
define range(i32 -1, 1) i32 @H5D_flush_all(ptr noundef %0) local_unnamed_addr #0 {
  %2 = load i8, ptr @H5D_init_g, align 1, !tbaa !3, !range !7, !noundef !8
  %3 = trunc nuw i8 %2 to i1
  %4 = load i8, ptr @H5_libterm_g, align 1, !range !7
  %5 = trunc nuw i8 %4 to i1
  %6 = select i1 %3, i1 true, i1 %5
  br i1 %6, label %14, label %7, !prof !9

7:                                                ; preds = %1
  store i8 1, ptr @H5D_init_g, align 1, !tbaa !3
  %8 = tail call i32 @H5D__init_package()
  %9 = icmp slt i32 %8, 0
  br i1 %9, label %10, label %._crit_edge

._crit_edge:                                      ; preds = %7
  %.pre = load i8, ptr @H5D_init_g, align 1, !tbaa !3, !range !7
  %.pre3 = load i8, ptr @H5_libterm_g, align 1, !range !7
  %.pre4 = trunc nuw i8 %.pre to i1
  %.pre5 = trunc nuw i8 %.pre3 to i1
  br label %14

10:                                               ; preds = %7
  store i8 0, ptr @H5D_init_g, align 1, !tbaa !3
  %11 = load i64, ptr @H5E_FUNC_g, align 8, !tbaa !10
  %12 = load i64, ptr @H5E_CANTINIT_g, align 8, !tbaa !10
  %13 = tail call i32 (ptr, ptr, i32, i64, i64, ptr, ...) @H5E_printf_stack(ptr noundef nonnull @.str.2, ptr noundef nonnull @__func__.H5D_flush_all, i32 noundef 3592, i64 noundef %11, i64 noundef %12, ptr noundef nonnull @.str.3) #12
  br label %24

14:                                               ; preds = %._crit_edge, %1
  %.pre-phi6 = phi i1 [ %.pre5, %._crit_edge ], [ %5, %1 ]
  %.pre-phi = phi i1 [ %.pre4, %._crit_edge ], [ %3, %1 ]
  %15 = xor i1 %.pre-phi6, true
  %16 = select i1 %.pre-phi, i1 true, i1 %15
  br i1 %16, label %17, label %24, !prof !9

17:                                               ; preds = %14
  %18 = tail call i32 @H5I_iterate(i32 noundef 5, ptr noundef nonnull @H5D__flush_all_cb, ptr noundef %0, i1 noundef zeroext false) #12
  %19 = icmp slt i32 %18, 0
  br i1 %19, label %20, label %24

20:                                               ; preds = %17
  %21 = load i64, ptr @H5E_DATASET_g, align 8, !tbaa !10
  %22 = load i64, ptr @H5E_BADITER_g, align 8, !tbaa !10
  %23 = tail call i32 (ptr, ptr, i32, i64, i64, ptr, ...) @H5E_printf_stack(ptr noundef nonnull @.str.2, ptr noundef nonnull @__func__.H5D_flush_all, i32 noundef 3599, i64 noundef %21, i64 noundef %22, ptr noundef nonnull @.str.65) #12
  br label %24

24:                                               ; preds = %10, %20, %17, %14
  %.0 = phi i32 [ -1, %10 ], [ -1, %20 ], [ 0, %17 ], [ 0, %14 ]
  ret i32 %.0
}